(lp0
V@Formula
p1
aVA-0 System
p2
aVA# .NET
p3
aVA# (Axiom)
p4
aVA+
p5
aVA++
p6
aVABAP
p7
aVABC
p8
aVABC ALGOL
p9
aVABSET
p10
aVABSYS
p11
aVACC
p12
aVAccent
p13
aVAce DASL
p14
aVACL2
p15
aVACT-III
p16
aVAction!
p17
aVActionScript
p18
aVActive Server Pages
p19
aVAda
p20
aVAdenine
p21
aVAgda
p22
aVAgilent VEE
p23
aVAgora
p24
aVAIMMS
p25
aVAlef
p26
aVALF
p27
aVALGOL 58
p28
aVALGOL 60
p29
aVALGOL 68
p30
aVALGOL W
p31
aVAlice
p32
aVAlma-0
p33
aVAmbientTalk
p34
aVAmiga E
p35
aVAMOS
p36
aVAMPL
p37
aVApex
p38
aVAPL
p39
aVApp Inventor for Android's visual block language
p40
aVAppleScript
p41
aVArc
p42
aVARexx
p43
aVArgus
p44
aVASP.NET
p45
aVAspectJ
p46
aVAssembly language
p47
aVAteji PX
p48
aVATS
p49
aVAutocoder
p50
aVAutoHotkey
p51
aVAutoIt
p52
aVAutoLISP / Visual LISP
p53
aVAverest
p54
aVAvicsoft
p55
aVAWK
p56
aVAxum
p57
aVB
p58
aVBabbage
p59
aVbash
p60
aVBASIC
p61
aVBatch (Windows/Dos)
p62
aVbc
p63
aVBCPL
p64
aVBeanShell
p65
aVBertrand
p66
aVBETA
p67
aVBigwig
p68
aVBistro
p69
aVBitC
p70
aVBLISS
p71
aVBlockly
p72
aVBlooP
p73
aVBlue
p74
aVBoo
p75
aVBoomerang
p76
aVBourne shell
p77
aVBPEL
p78
aVBREW
p79
aVBusiness Basic
p80
aVC
p81
aVC Shell
p82
aVC--
p83
aVC/AL
p84
aVC#
p85
aVC++
p86
aVCach ObjectScript
p87
aVCaml
p88
aVCayenne
p89
aVCDuce
p90
aVCecil
p91
aVCesil
p92
aVCu
p93
aVCeylon
p94
aVCFEngine
p95
aVCFML
p96
aVCg
p97
aVCh
p98
aVChapel
p99
aVCharity
p100
aVCharm
p101
aVChef
p102
aVCHILL
p103
aVCHIP-8
p104
aVchomski
p105
aVChucK
p106
aVCICS
p107
aVCIL
p108
aVCilk
p109
aVCitrine (programming language)
p110
aVCL
p111
aVClaire
p112
aVClarion
p113
aVClean
p114
aVClipper
p115
aVCLIPS
p116
aVCLIST
p117
aVClojure
p118
aVCLU
p119
aVCMS EXEC
p120
aVCMS-2
p121
aVCOBOL
p122
aVCobolScript
p123
aVCobra
p124
aVCODE
p125
aVCoffeeScript
p126
aVColdFusion
p127
aVCOMAL
p128
aVCombined Programming Language
p129
aVCOMIT
p130
aVCommon Lisp
p131
aVCOMPASS
p132
aVComponent Pascal
p133
aVCOMTRAN
p134
aVConstraint Handling Rules
p135
aVConverge
p136
aVCool
p137
aVCoq
p138
aVCoral 66
p139
aVCorn
p140
aVCorVision
p141
aVCOWSEL
p142
aVCPL
p143
aVCryptol
p144
aVcsh
p145
aVCsound
p146
aVCSP
p147
aVCUDA
p148
aVCurl
p149
aVCurry
p150
aVCybil
p151
aVCyclone
p152
aVCython
p153
aVD
p154
aVDart
p155
aVDASL
p156
aVDataFlex
p157
aVDatalog
p158
aVDATATRIEVE
p159
aVdBase
p160
aVdc
p161
aVDCL
p162
aVDeesel
p163
aVDelphi
p164
aVDIBOL
p165
aVDinkC
p166
aVDog
p167
aVDraco
p168
aVDRAKON
p169
aVDylan
p170
aVDYNAMO
p171
aVE
p172
aVEarSketch
p173
aVEase
p174
aVEasy PL/I
p175
aVEasy Programming Language
p176
aVEASYTRIEVE PLUS
p177
aVECMAScript
p178
aVEdinburgh IMP
p179
aVEGL
p180
aVEiffel
p181
aVELAN
p182
aVElixir
p183
aVElm
p184
aVEmacs Lisp
p185
aVEmerald
p186
aVEpigram
p187
aVErlang
p188
aVes
p189
aVEscher
p190
aVESPOL
p191
aVEsterel
p192
aVEtoys
p193
aVEuclid
p194
aVEuler
p195
aVEuphoria
p196
aVEusLisp Robot Programming Language
p197
aVEXEC 2
p198
aVExecutable UML
p199
aVF
p200
aVF-Script
p201
aVF#
p202
aVFactor
p203
aVFalcon
p204
aVFantom
p205
aVFAUST
p206
aVFFP
p207
aVFjlnir
p208
aVFL
p209
aVFlavors
p210
aVFlex
p211
aVFLOW-MATIC
p212
aVFOCAL
p213
aVFOCUS
p214
aVFOIL
p215
aVFORMAC
p216
aVForth
p217
aVFortran
p218
aVFortress
p219
aVFoxBase
p220
aVFoxPro
p221
aVFP
p222
aVFPr
p223
aVFranz Lisp
p224
aVFrege
p225
aVG
p226
aVG-code
p227
aVGame Maker Language
p228
aVGameMonkey Script
p229
aVGAMS
p230
aVGAP
p231
aVGDL
p232
aVGenie
p233
aVGEORGE
p234
aVGJ
p235
aVGLSL
p236
aVGM
p237
aVGNU E
p238
aVGo
p239
aVGo!
p240
aVGOAL
p241
aVGdel
p242
aVGolo
p243
aVGOM (Good Old Mad)
p244
aVGoogle Apps Script
p245
aVGosu
p246
aVGOTRAN
p247
aVGPSS
p248
aVGraphTalk
p249
aVGRASS
p250
aVGroovy
p251
aVHack
p252
aVHAGGIS
p253
aVHAL/S
p254
aVHamilton C shell
p255
aVHarbour
p256
aVHartmann pipelines
p257
aVHaskell
p258
aVHaxe
p259
aVHermes
p260
aVHigh Level Assembly
p261
aVHLSL
p262
aVHop
p263
aVHope
p264
aVHopscotch
p265
aVHTML
p266
aVHugo
p267
aVHume
p268
aVHyperTalk
p269
aVIBM Basic assembly language
p270
aVIBM HAScript
p271
aVIBM Informix-4GL
p272
aVIBM RPG
p273
aVICI
p274
aVIcon
p275
aVId
p276
aVIDL
p277
aVIdris
p278
aVIMP
p279
aVInform
p280
aVINTERLISP
p281
aVIo
p282
aVIoke
p283
aVIPL
p284
aVIPTSCRAE
p285
aVISLISP
p286
aVISPF
p287
aVISWIM
p288
aVJ
p289
aVJ#
p290
aVJ++
p291
aVJADE
p292
aVJako
p293
aVJAL
p294
aVJanus (concurrent constraint programming language)
p295
aVJanus (time-reversible computing programming language)
p296
aVJASS
p297
aVJava
p298
aVJavaFX Script
p299
aVJavaScript
p300
aVJCL
p301
aVJEAN
p302
aVJoin Java
p303
aVJOSS
p304
aVJoule
p305
aVJOVIAL
p306
aVJoy
p307
aVJScript
p308
aVJScript .NET
p309
aVJSON
p310
aVJSON-LD
p311
aVJulia
p312
aVJython
p313
aVK
p314
aVKaleidoscope
p315
aVKarel
p316
aVKarel++
p317
aVKEE
p318
aVKIF
p319
aVKixtart
p320
aVKlerer-May System
p321
aVKojo
p322
aVKotlin
p323
aVKRC
p324
aVKRL
p325
aVKRYPTON
p326
aVksh
p327
aVKUKA
p328
aVL
p329
aVL# .NET
p330
aVLabVIEW
p331
aVLadder
p332
aVLagoona
p333
aVLANSA
p334
aVLasso
p335
aVLava
p336
aVLC-3
p337
aVLeda
p338
aVLegoscript
p339
aVLIL
p340
aVLilyPond
p341
aVLimbo
p342
aVLimnor
p343
aVLINC
p344
aVLingo
p345
aVLIS
p346
aVLISA
p347
aVLisaac
p348
aVLisp
p349
aVLite-C
p350
aVLithe
p351
aVLittle b
p352
aVLiveScript
p353
aVLogo
p354
aVLogtalk
p355
aVLotusScript
p356
aVLPC
p357
aVLSE
p358
aVLSL
p359
aVLua
p360
aVLucid
p361
aVLustre
p362
aVLYaPAS
p363
aVLynx
p364
aVM#
p365
aVM2001
p366
aVM4
p367
aVMachine code
p368
aVMacsyma
p369
aVMagik
p370
aVMagma
p371
aVmake
p372
aVMaple
p373
aVMAPPER
p374
aVMARK-IV
p375
aVMarkdown
p376
aVMary
p377
aVMASM Microsoft Assembly x86
p378
aVMATH-MATIC
p379
aVMathcad
p380
aVMathematica
p381
aVMathML
p382
aVMATLAB
p383
aVMax
p384
aVMaxima
p385
aVMaxScript
p386
aVMaya (MEL)
p387
aVMDL
p388
aVMercury
p389
aVMesa
p390
aVMetafont
p391
aVMicrocode
p392
aVMicroScript
p393
aVMIIS
p394
aVMilk (programming language)
p395
aVMIMIC
p396
aVMirah
p397
aVMiranda
p398
aVMIVA Script
p399
aVML
p400
aVModel 204
p401
aVModelica
p402
aVModula
p403
aVModula-2
p404
aVModula-3
p405
aVMohol
p406
aVMOO
p407
aVMortran
p408
aVMouse
p409
aVMPD
p410
aVMSL
p411
aVMUMPS
p412
aVMystic Programming Language
p413
aVN-Quads
p414
aVN-Triples
p415
aVN3
p416
aVNapier88
p417
aVNASM
p418
aVNeko
p419
aVNemerle
p420
aVnesC
p421
aVNESL
p422
aVNet.Data
p423
aVNetLogo
p424
aVNetRexx
p425
aVNewLISP
p426
aVNEWP
p427
aVNewspeak
p428
aVNewtonScript
p429
aVNGL
p430
aVNial
p431
aVNice
p432
aVNickle
p433
aVNim
p434
aVNO
p435
aVNot eXactly C
p436
aVNot Quite C
p437
aVNPL
p438
aVNSIS
p439
aVNu
p440
aVNumpy
p441
aVNWScript
p442
aVNXT-G
p443
aVo:XML
p444
aVOak
p445
aVOberon
p446
aVOBJ2
p447
aVObject Lisp
p448
aVObject Pascal
p449
aVObject REXX
p450
aVObjective-C
p451
aVObjective-J
p452
aVObjectLOGO
p453
aVObliq
p454
aVOCaml
p455
aVoccam
p456
aVoccam-\u03c0
p457
aVOctave
p458
aVOmniMark
p459
aVOnyx
p460
aVOpa
p461
aVOpal
p462
aVOpenCL
p463
aVOpenEdge ABL
p464
aVOpenVera
p465
aVOPL
p466
aVOPS5
p467
aVOptimJ
p468
aVOrc
p469
aVORCA/Modula-2
p470
aVOriel
p471
aVOrwell
p472
aVOxygene
p473
aVOz
p474
aVP#
p475
aVP\u2032\u2032
p476
aVParaSail (programming language)
p477
aVPARI/GP
p478
aVPascal
p479
aVPCASTL
p480
aVPCF
p481
aVPDL
p482
aVPEARL
p483
aVPeopleCode
p484
aVPerl
p485
aVPerl6
p486
aVPharo
p487
aVPHP
p488
aVPhrogram
p489
aVPico
p490
aVPicolisp
p491
aVPict
p492
aVPike
p493
aVPIKT
p494
aVPILOT
p495
aVPizza
p496
aVPL-11
p497
aVPL/0
p498
aVPL/B
p499
aVPL/C
p500
aVPL/M
p501
aVPL/P
p502
aVPL/SQL
p503
aVPL360
p504
aVPLANC
p505
aVPlankalkl
p506
aVPlanner
p507
aVPLEX
p508
aVPLEXIL
p509
aVPlus
p510
aVPOP-11
p511
aVPOP-2
p512
aVPortablE
p513
aVPostScript
p514
aVPowerBuilder
p515
aVPowerhouse
p516
aVPowerShell
p517
aVPPL
p518
aVPro*C
p519
aVProcessing
p520
aVProcessing.js
p521
aVPrograph
p522
aVPROIV
p523
aVProlog
p524
aVPROMAL
p525
aVPromela
p526
aVPROSE modeling language
p527
aVPROTEL
p528
aVProvideX
p529
aVPure
p530
aVPure Data
p531
aVPython
p532
aVQ (equational programming language)
p533
aVQ (programming language from Kx Systems)
p534
aVQalb
p535
aVQPL
p536
aVQtScript
p537
aVQuakeC
p538
aVR
p539
aVR++
p540
aVRacket
p541
aVRAPID
p542
aVRapira
p543
aVRatfiv
p544
aVRatfor
p545
aVrc
p546
aVREBOL
p547
aVRed
p548
aVRedcode
p549
aVREFAL
p550
aVReia
p551
aVREXX
p552
aVRlab
p553
aVROOP
p554
aVRPL
p555
aVRSL
p556
aVRTL/2
p557
aVRuby
p558
aVRuneScript
p559
aVRust
p560
aVS
p561
aVS-Lang
p562
aVS-PLUS
p563
aVS/SL
p564
aVS2
p565
aVS3
p566
aVSA-C
p567
aVSabreTalk
p568
aVSAIL
p569
aVSALSA
p570
aVSAM76
p571
aVSAS
p572
aVSASL
p573
aVSather
p574
aVSawzall
p575
aVSBL
p576
aVScala
p577
aVScheme
p578
aVScilab
p579
aVScratch
p580
aVScript.NET
p581
aVSed
p582
aVSeed7
p583
aVSelf
p584
aVSenseTalk
p585
aVSequenceL
p586
aVSETL
p587
aVSGML
p588
aVSIGNAL
p589
aVSiMPLE
p590
aVSIMPOL
p591
aVSIMSCRIPT
p592
aVSimula
p593
aVSimulink
p594
aVSingularity
p595
aVSISAL
p596
aVSLIP
p597
aVSMALL
p598
aVSmall Basic
p599
aVSmalltalk
p600
aVSML
p601
aVSnap!
p602
aVSNOBOL
p603
aVSnowball
p604
aVSOL
p605
aVSP/k
p606
aVSpan
p607
aVSPARK
p608
aVSpeedcode
p609
aVSPIN
p610
aVSPITBOL
p611
aVSPS
p612
aVSQL
p613
aVSQR
p614
aVSqueak
p615
aVSquirrel
p616
aVSR
p617
aVStackless Python
p618
aVStarlogo
p619
aVStata
p620
aVStateflow
p621
aVStrand
p622
aVStrongtalk
p623
aVSubtext
p624
aVSuperCollider
p625
aVSuperTalk
p626
aVSVG
p627
aVSwift (Apple programming language)
p628
aVSwift (parallel scripting language)
p629
aVSYMPL
p630
aVSyncCharts
p631
aVSystemVerilog
p632
aVT
p633
aVT-SQL
p634
aVTACL
p635
aVTACPOL
p636
aVTADS
p637
aVTAL
p638
aVTcl
p639
aVTea
p640
aVTECO
p641
aVTELCOMP
p642
aVTeX
p643
aVTEX
p644
aVTIE
p645
aVTimber
p646
aVTMG
p647
aVToi
p648
aVTom
p649
aVTOM
p650
aVTouchDevelop
p651
aVTPU
p652
aVTrac
p653
aVTranscript
p654
aVTTCN
p655
aVTTM
p656
aVTurbo C++
p657
aVTuring
p658
aVTurtle
p659
aVTUTOR
p660
aVTXL
p661
aVTypeScript
p662
aVUbercode
p663
aVUCSD Pascal
p664
aVUmple
p665
aVUnicon
p666
aVUniface
p667
aVUNITY
p668
aVUnix shell
p669
aVUnrealScript
p670
aVVala
p671
aVVisual Basic
p672
aVVisual Basic .NET
p673
aVVisual DataFlex
p674
aVVisual DialogScript
p675
aVVisual Fortran
p676
aVVisual FoxPro
p677
aVVisual J#
p678
aVVisual Objects
p679
aVVisual Prolog
p680
aVVSXu
p681
aVvvvv
p682
aVWATFIV, WATFOR
p683
aVWebDNA
p684
aVWebQL
p685
aVWhiley
p686
aVWinbatch
p687
aVWindows PowerShell
p688
aVWolfram Language
p689
aVWyvern
p690
aVX#
p691
aVX++
p692
aVX10
p693
aVXBL
p694
aVXC
p695
aVxHarbour
p696
aVXL
p697
aVXML
p698
aVXMOS architecture
p699
aVXojo
p700
aVXOTcl
p701
aVXPath
p702
aVXPL
p703
aVXPL0
p704
aVXQuery
p705
aVXSB
p706
aVXSLT
p707
aVXtend
p708
aVYAML
p709
aVYoix
p710
aVYorick
p711
aVYQL
p712
aVZ notation
p713
aVZeno
p714
aVZOPL
p715
aVZPL
p716
aVZsh
p717
a.